target datalayout = "e-m:e-p270:32:32-p271:32:32-p272:64:64-i64:64-i128:128-f80:128-n8:16:32:64-S128"
target triple = "x86_64-unknown-linux-gnu"

%class.anon.99 = type { ptr }

; Function Attrs: mustprogress uwtable
define internal void @"_ZZN17grpc_event_engine12experimental16PosixEventEngine8RunAfterENSt6chrono8durationIlSt5ratioILl1ELl1000000000EEEEPNS0_11EventEngine7ClosureEENK3$_0clEv"(ptr noundef nonnull align 8 dereferenceable(8) %this) #4 align 2 {
entry:
  %this.addr = alloca ptr, align 8
  store ptr %this, ptr %this.addr, align 8
  %this1 = load ptr, ptr %this.addr, align 8
  %0 = getelementptr inbounds %class.anon.99, ptr %this1, i32 0, i32 0
  %1 = load ptr, ptr %0, align 8
  %vtable = load ptr, ptr %1, align 8
  %vfn = getelementptr inbounds ptr, ptr %vtable, i64 2
  %2 = load ptr, ptr %vfn, align 8
  call void %2(ptr noundef nonnull align 8 dereferenceable(8) %1)
  ret void
}

; Function Attrs: mustprogress uwtable
define internal void @"_ZSt13__invoke_implIvRZN17grpc_event_engine12experimental16PosixEventEngine8RunAfterENSt6chrono8durationIlSt5ratioILl1ELl1000000000EEEEPNS1_11EventEngine7ClosureEE3$_0JEET_St14__invoke_otherOT0_DpOT1_"(ptr noundef nonnull align 8 dereferenceable(8) %__f) #4 {
entry:
  %__f.addr = alloca ptr, align 8
  store ptr %__f, ptr %__f.addr, align 8
  %0 = load ptr, ptr %__f.addr, align 8
  call void @"_ZZN17grpc_event_engine12experimental16PosixEventEngine8RunAfterENSt6chrono8durationIlSt5ratioILl1ELl1000000000EEEEPNS0_11EventEngine7ClosureEENK3$_0clEv"(ptr noundef nonnull align 8 dereferenceable(8) %0)
  ret void
}

; Function Attrs: mustprogress uwtable
define internal void @"_ZSt8__invokeIRZN17grpc_event_engine12experimental16PosixEventEngine8RunAfterENSt6chrono8durationIlSt5ratioILl1ELl1000000000EEEEPNS1_11EventEngine7ClosureEE3$_0JEENSt15__invoke_resultIT_JDpT0_EE4typeEOSE_DpOSF_"(ptr noundef nonnull align 8 dereferenceable(8) %__fn) #4 {
entry:
  %__fn.addr = alloca ptr, align 8
  store ptr %__fn, ptr %__fn.addr, align 8
  %0 = load ptr, ptr %__fn.addr, align 8
  call void @"_ZSt13__invoke_implIvRZN17grpc_event_engine12experimental16PosixEventEngine8RunAfterENSt6chrono8durationIlSt5ratioILl1ELl1000000000EEEEPNS1_11EventEngine7ClosureEE3$_0JEET_St14__invoke_otherOT0_DpOT1_"(ptr noundef nonnull align 8 dereferenceable(8) %0)
  ret void
}

; Function Attrs: mustprogress uwtable
define internal void @"_ZSt6invokeIRZN17grpc_event_engine12experimental16PosixEventEngine8RunAfterENSt6chrono8durationIlSt5ratioILl1ELl1000000000EEEEPNS1_11EventEngine7ClosureEE3$_0JEENSt13invoke_resultIT_JDpT0_EE4typeEOSE_DpOSF_"(ptr noundef nonnull align 8 dereferenceable(8) %__fn) #4 {
entry:
  %__fn.addr = alloca ptr, align 8
  store ptr %__fn, ptr %__fn.addr, align 8
  %0 = load ptr, ptr %__fn.addr, align 8
  call void @"_ZSt8__invokeIRZN17grpc_event_engine12experimental16PosixEventEngine8RunAfterENSt6chrono8durationIlSt5ratioILl1ELl1000000000EEEEPNS1_11EventEngine7ClosureEE3$_0JEENSt15__invoke_resultIT_JDpT0_EE4typeEOSE_DpOSF_"(ptr noundef nonnull align 8 dereferenceable(8) %0)
  ret void
}

; Function Attrs: mustprogress nounwind uwtable
define internal noundef ptr @"_ZSt7launderIZN17grpc_event_engine12experimental16PosixEventEngine8RunAfterENSt6chrono8durationIlSt5ratioILl1ELl1000000000EEEEPNS1_11EventEngine7ClosureEE3$_0EPT_SD_"(ptr noundef %__p) #5 {
entry:
  %__p.addr = alloca ptr, align 8
  store ptr %__p, ptr %__p.addr, align 8
  %0 = load ptr, ptr %__p.addr, align 8
  ret ptr %0
}

; Function Attrs: mustprogress uwtable
define internal void @"_ZN4absl12lts_2023080222internal_any_invocable7InvokeRIvRZN17grpc_event_engine12experimental16PosixEventEngine8RunAfterENSt6chrono8durationIlSt5ratioILl1ELl1000000000EEEEPNS4_11EventEngine7ClosureEE3$_0JEvEEvOT0_DpOT1_"(ptr noundef nonnull align 8 dereferenceable(8) %f) #4 {
entry:
  %f.addr = alloca ptr, align 8
  store ptr %f, ptr %f.addr, align 8
  %0 = load ptr, ptr %f.addr, align 8
  call void @"_ZSt6invokeIRZN17grpc_event_engine12experimental16PosixEventEngine8RunAfterENSt6chrono8durationIlSt5ratioILl1ELl1000000000EEEEPNS1_11EventEngine7ClosureEE3$_0JEENSt13invoke_resultIT_JDpT0_EE4typeEOSE_DpOSF_"(ptr noundef nonnull align 8 dereferenceable(8) %0)
  ret void
}

; Function Attrs: mustprogress nounwind uwtable
define internal noundef nonnull align 8 dereferenceable(8) ptr @"_ZN4absl12lts_2023080222internal_any_invocable20ObjectInLocalStorageIZN17grpc_event_engine12experimental16PosixEventEngine8RunAfterENSt6chrono8durationIlSt5ratioILl1ELl1000000000EEEEPNS4_11EventEngine7ClosureEE3$_0EERT_PNS1_15TypeErasedStateE"(ptr noundef %state) #5 {
entry:
  %state.addr = alloca ptr, align 8
  store ptr %state, ptr %state.addr, align 8
  %0 = load ptr, ptr %state.addr, align 8
  %call = call noundef ptr @"_ZSt7launderIZN17grpc_event_engine12experimental16PosixEventEngine8RunAfterENSt6chrono8durationIlSt5ratioILl1ELl1000000000EEEEPNS1_11EventEngine7ClosureEE3$_0EPT_SD_"(ptr noundef %0) #3
  ret ptr %call
}

; Function Attrs: mustprogress uwtable
define internal void @"_ZN4absl12lts_2023080222internal_any_invocable12LocalInvokerILb0EvRZN17grpc_event_engine12experimental16PosixEventEngine8RunAfterENSt6chrono8durationIlSt5ratioILl1ELl1000000000EEEEPNS4_11EventEngine7ClosureEE3$_0JEEET0_PNS1_15TypeErasedStateEDpNS1_18ForwardedParameterIT2_E4typeE"(ptr noundef %state) #4 {
entry:
  %state.addr = alloca ptr, align 8
  %f = alloca ptr, align 8
  store ptr %state, ptr %state.addr, align 8
  %0 = load ptr, ptr %state.addr, align 8
  %call = call noundef nonnull align 8 dereferenceable(8) ptr @"_ZN4absl12lts_2023080222internal_any_invocable20ObjectInLocalStorageIZN17grpc_event_engine12experimental16PosixEventEngine8RunAfterENSt6chrono8durationIlSt5ratioILl1ELl1000000000EEEEPNS4_11EventEngine7ClosureEE3$_0EERT_PNS1_15TypeErasedStateE"(ptr noundef %0)
  store ptr %call, ptr %f, align 8
  %1 = load ptr, ptr %f, align 8
  call void @"_ZN4absl12lts_2023080222internal_any_invocable7InvokeRIvRZN17grpc_event_engine12experimental16PosixEventEngine8RunAfterENSt6chrono8durationIlSt5ratioILl1ELl1000000000EEEEPNS4_11EventEngine7ClosureEE3$_0JEvEEvOT0_DpOT1_"(ptr noundef nonnull align 8 dereferenceable(8) %1)
  ret void
}