; Function Attrs: mustprogress uwtable
define internal void @"_ZN4absl12lts_2023080222internal_any_invocable12LocalInvokerILb0EvRZN17grpc_event_engine12experimental16PosixEventEngine8RunAfterENSt6chrono8durationIlSt5ratioILl1ELl1000000000EEEEPNS4_11EventEngine7ClosureEE3$_0JEEET0_PNS1_15TypeErasedStateEDpNS1_18ForwardedParameterIT2_E4typeE"(ptr nocapture noundef readonly %state) #3 {
entry:
  %call.val = load ptr, ptr %state, align 8
  %vtable.i.i.i.i.i = load ptr, ptr %call.val, align 8
  %vfn.i.i.i.i.i = getelementptr inbounds i8, ptr %vtable.i.i.i.i.i, i64 16
  %0 = load ptr, ptr %vfn.i.i.i.i.i, align 8
  tail call void %0(ptr noundef nonnull align 8 dereferenceable(8) %call.val)
  ret void
}